target datalayout = "e-m:e-p270:32:32-p271:32:32-p272:64:64-i64:64-i128:128-f80:128-n8:16:32:64-S128"
target triple = "x86_64-pc-linux-gnu"

%struct.lua_TValue = type { %union.Value, [1 x i32], i32 }
%union.Value = type { ptr }
%struct.lua_State = type { i8, i8, i8, i8, i8, i8, i8, ptr, ptr, ptr, ptr, ptr, ptr, ptr, ptr, i32, i32, i16, i16, i32, ptr, ptr, ptr, ptr, ptr }

@.str.8 = private unnamed_addr constant [5 x i8] c"call\00", align 1

; Function Attrs: mustprogress noinline uwtable
define hidden void @_Z14luaV_tryfuncTMP9lua_StateP10lua_TValue(ptr noundef %0, ptr noundef %1) #10 {
  %3 = alloca ptr, align 8
  %4 = alloca ptr, align 8
  %5 = alloca ptr, align 8
  %6 = alloca ptr, align 8
  %7 = alloca ptr, align 8
  %8 = alloca ptr, align 8
  %9 = alloca ptr, align 8
  %10 = alloca ptr, align 8
  store ptr %0, ptr %3, align 8, !tbaa !15
  store ptr %1, ptr %4, align 8, !tbaa !4
  call void @llvm.lifetime.start.p0(i64 8, ptr %5) #11
  %11 = load ptr, ptr %3, align 8, !tbaa !15
  %12 = load ptr, ptr %4, align 8, !tbaa !4
  %13 = call noundef ptr @_Z15luaT_gettmbyobjP9lua_StatePK10lua_TValue3TMS(ptr noundef %11, ptr noundef %12, i32 noundef 4)
  store ptr %13, ptr %5, align 8, !tbaa !4
  %14 = load ptr, ptr %5, align 8, !tbaa !4
  %15 = getelementptr inbounds nuw %struct.lua_TValue, ptr %14, i32 0, i32 2
  %16 = load i32, ptr %15, align 4, !tbaa !9
  %17 = icmp eq i32 %16, 7
  br i1 %17, label %21, label %18

18:                                               ; preds = %2
  %19 = load ptr, ptr %3, align 8, !tbaa !15
  %20 = load ptr, ptr %4, align 8, !tbaa !4
  call void @_Z15luaG_typeerrorLP9lua_StatePK10lua_TValuePKc(ptr noundef %19, ptr noundef %20, ptr noundef @.str.8) #12
  unreachable

21:                                               ; preds = %2
  call void @llvm.lifetime.start.p0(i64 8, ptr %6) #11
  %22 = load ptr, ptr %3, align 8, !tbaa !15
  %23 = getelementptr inbounds nuw %struct.lua_State, ptr %22, i32 0, i32 7
  %24 = load ptr, ptr %23, align 8, !tbaa !44
  store ptr %24, ptr %6, align 8, !tbaa !4
  br label %25

25:                                               ; preds = %36, %21
  %26 = load ptr, ptr %6, align 8, !tbaa !4
  %27 = load ptr, ptr %4, align 8, !tbaa !4
  %28 = icmp ugt ptr %26, %27
  br i1 %28, label %30, label %29

29:                                               ; preds = %25
  call void @llvm.lifetime.end.p0(i64 8, ptr %6) #11
  br label %39

30:                                               ; preds = %25
  call void @llvm.lifetime.start.p0(i64 8, ptr %7) #11
  %31 = load ptr, ptr %6, align 8, !tbaa !4
  %32 = getelementptr inbounds %struct.lua_TValue, ptr %31, i64 -1
  store ptr %32, ptr %7, align 8, !tbaa !4
  call void @llvm.lifetime.start.p0(i64 8, ptr %8) #11
  %33 = load ptr, ptr %6, align 8, !tbaa !4
  store ptr %33, ptr %8, align 8, !tbaa !4
  %34 = load ptr, ptr %7, align 8, !tbaa !4
  %35 = load ptr, ptr %8, align 8, !tbaa !4
  call void @llvm.memcpy.p0.p0.i64(ptr align 8 %35, ptr align 8 %34, i64 16, i1 false), !tbaa.struct !38
  call void @llvm.lifetime.end.p0(i64 8, ptr %8) #11
  call void @llvm.lifetime.end.p0(i64 8, ptr %7) #11
  br label %36

36:                                               ; preds = %30
  %37 = load ptr, ptr %6, align 8, !tbaa !4
  %38 = getelementptr inbounds %struct.lua_TValue, ptr %37, i32 -1
  store ptr %38, ptr %6, align 8, !tbaa !4
  br label %25, !llvm.loop !78

39:                                               ; preds = %29
  %40 = load ptr, ptr %3, align 8, !tbaa !15
  %41 = getelementptr inbounds nuw %struct.lua_State, ptr %40, i32 0, i32 7
  %42 = load ptr, ptr %41, align 8, !tbaa !44
  %43 = getelementptr inbounds nuw %struct.lua_TValue, ptr %42, i32 1
  store ptr %43, ptr %41, align 8, !tbaa !44
  call void @llvm.lifetime.start.p0(i64 8, ptr %9) #11
  %44 = load ptr, ptr %5, align 8, !tbaa !4
  store ptr %44, ptr %9, align 8, !tbaa !4
  call void @llvm.lifetime.start.p0(i64 8, ptr %10) #11
  %45 = load ptr, ptr %4, align 8, !tbaa !4
  store ptr %45, ptr %10, align 8, !tbaa !4
  %46 = load ptr, ptr %9, align 8, !tbaa !4
  %47 = load ptr, ptr %10, align 8, !tbaa !4
  call void @llvm.memcpy.p0.p0.i64(ptr align 8 %47, ptr align 8 %46, i64 16, i1 false), !tbaa.struct !38
  call void @llvm.lifetime.end.p0(i64 8, ptr %10) #11
  call void @llvm.lifetime.end.p0(i64 8, ptr %9) #11
  call void @llvm.lifetime.end.p0(i64 8, ptr %5) #11
  ret void
}