; Function Attrs: mustprogress noinline uwtable
define hidden void @_Z14luaV_tryfuncTMP9lua_StateP10lua_TValue(ptr noundef %0, ptr noundef %1) local_unnamed_addr #9 {
  %3 = tail call noundef ptr @_Z15luaT_gettmbyobjP9lua_StatePK10lua_TValue3TMS(ptr noundef %0, ptr noundef %1, i32 noundef 4)
  %4 = getelementptr inbounds nuw i8, ptr %3, i64 12
  %5 = load i32, ptr %4, align 4, !tbaa !4
  %6 = icmp eq i32 %5, 7
  br i1 %6, label %8, label %7

7:                                                ; preds = %2
  tail call void @_Z15luaG_typeerrorLP9lua_StatePK10lua_TValuePKc(ptr noundef %0, ptr noundef %1, ptr noundef nonnull @.str.8) #12
  unreachable

8:                                                ; preds = %2
  %9 = getelementptr inbounds nuw i8, ptr %0, i64 8
  %10 = load ptr, ptr %9, align 8, !tbaa !36
  %11 = icmp ugt ptr %10, %1
  br i1 %11, label %.lr.ph, label %._crit_edge

._crit_edge.loopexit:                             ; preds = %.lr.ph
  %.pre = load ptr, ptr %9, align 8, !tbaa !36
  br label %._crit_edge

._crit_edge:                                      ; preds = %._crit_edge.loopexit, %8
  %12 = phi ptr [ %.pre, %._crit_edge.loopexit ], [ %10, %8 ]
  %13 = getelementptr inbounds nuw i8, ptr %12, i64 16
  store ptr %13, ptr %9, align 8, !tbaa !36
  tail call void @llvm.memcpy.p0.p0.i64(ptr noundef nonnull align 8 dereferenceable(16) %1, ptr noundef nonnull align 8 dereferenceable(16) %3, i64 16, i1 false), !tbaa.struct !33
  ret void

.lr.ph:                                           ; preds = %8, %.lr.ph
  %.019 = phi ptr [ %14, %.lr.ph ], [ %10, %8 ]
  %14 = getelementptr inbounds i8, ptr %.019, i64 -16
  tail call void @llvm.memcpy.p0.p0.i64(ptr noundef nonnull align 8 dereferenceable(16) %.019, ptr noundef nonnull align 8 dereferenceable(16) %14, i64 16, i1 false), !tbaa.struct !33
  %15 = icmp ugt ptr %14, %1
  br i1 %15, label %.lr.ph, label %._crit_edge.loopexit, !llvm.loop !63
}